(dp1
V+17248417560
p2
(lp3
(S'bitfinex'
p4
S'cexio'
p5
F0.015486825514644212
tp6
a(S'kraken'
p7
g5
F0.007548666527548601
tp8
asV+17248144801
p9
(lp10
g6
ag8
a(S'bitstamp'
p11
g5
F0.0066119119589248551
tp12
a(g4
g11
F0.0054858251316200722
tp13
as.