(dp1
V+14126239816
p2
(lp3
(S'bitfinex'
p4
S'cexio'
p5
F0.014913645358939706
tp6
asV+17248417560
p7
(lp8
g6
asV+17248144801
p9
(lp10
g6
a(S'kraken'
p11
g5
F0.006613522537398212
tp12
a(S'bitstamp'
p13
g5
F0.0064541382787933433
tp14
as.