(dp1
V+14126239816
p2
(lp3
(S'bitfinex'
p4
S'cexio'
p5
F0.017731135395186212
tp6
a(S'btce'
p7
S'kraken'
p8
F0.012422632756426974
tp9
a(g7
S'bitstamp'
p10
F0.011531664779782468
tp11
a(g7
g5
F0.024867089341412549
tp12
asV+17248417560
p13
(lp14
sV+17248144801
p15
(lp16
g6
ag12
as.