(dp1
V+14126239816
p2
(lp3
sV+17248417560
p4
(lp5
(S'btce'
p6
S'cexio'
p7
F0.018855127035238527
tp8
a(S'bitfinex'
p9
g7
F0.014470958422003952
tp10
asV+17248144801
p11
(lp12
g8
a(g9
g7
F0.01655644377546122
tp13
as.