(dp1
V+14126239816
p2
(lp3
(S'btce'
p4
S'bitstamp'
p5
F0.012734389597636125
tp6
a(g4
S'kraken'
p7
F0.013349935180151184
tp8
a(S'bitfinex'
p9
S'cexio'
p10
F0.015653824527977551
tp11
a(g4
g10
F0.023707079890514626
tp12
asV+17248417560
p13
(lp14
g6
ag8
ag11
ag12
asV+17248144801
p15
(lp16
g11
ag12
as.