(dp1
V+17248417560
p2
(lp3
(S'bitstamp'
S'cexio'
p4
F0.0074017040465047847
tp5
a(S'bitfinex'
g4
F0.014699822874358519
tp6
a(S'kraken'
g4
F0.007112495205743731
tp7
asV+17248144801
p8
(lp9
g5
ag6
ag7
as.