(dp1
V+14126239816
p2
((lp3
S'bitfinex'
p4
aS'kraken'
p5
aS'btce'
p6
aS'bitstamp'
p7
aS'cexio'
p8
aF0.01
tp9
sV+17248417560
p10
((lp11
g4
ag5
ag6
ag7
ag8
aF0.01
tp12
sV+17248144801
p13
((lp14
g4
ag5
ag6
ag7
ag8
aF0.014999999999999999
tp15
s.