(dp1
V+14126239816
p2
((lF0
tp3
sV+17248417560
p4
((lp5
S'bitfinex'
p6
aS'kraken'
p7
aS'btce'
p8
aS'bitstamp'
p9
aS'cexio'
p10
aF0.01
tp11
sV+17248144801
p12
((lp13
g6
ag7
ag8
ag9
ag10
aF0.014999999999999999
tp14
s.