(dp1
V+14126239816
p2
((lp3
S'bitfinex'
p4
aS'kraken'
p5
aS'btce'
p6
aS'bitstamp'
p7
aS'cexio'
p8
aF0.01
tp9
sV+17248417560
p10
((lp11
S'bitfinex'
p12
aS'kraken'
p13
aS'btce'
p14
aS'bitstamp'
p15
aS'cexio'
p16
aF0.025000000000000001
tp17
sV+17248144801
p18
((lp19
g12
ag13
ag14
ag15
ag16
aF0.014999999999999999
tp20
sV+19074402377
p21
((lF0
tp22
s.