(dp1
V+14126239816
p2
((lp3
S'bitfinex'
p4
aS'bitstamp'
p5
aS'cexio'
p6
aS'kraken'
p7
aF0.01
tp8
sV+17248417560
p9
((lp10
g4
ag5
ag6
ag7
aF0.01
tp11
sV+17248144801
p12
((lp13
S'bitfinex'
p14
aS'bitstamp'
p15
aS'cexio'
p16
aS'kraken'
p17
aF0.0050000000000000001
tp18
s.